; ModuleID = 'source-C-CXX/41/122.cpp'
source_filename = "source-C-CXX/41/122.cpp"
target datalayout = "e-m:e-p270:32:32-p271:32:32-p272:64:64-i64:64-f80:128-n8:16:32:64-S128"
target triple = "x86_64-pc-linux-gnu"

%"class.std::ios_base::Init" = type { i8 }
%"class.std::basic_istream" = type { i32 (...)**, i64, %"class.std::basic_ios" }
%"class.std::basic_ios" = type { %"class.std::ios_base", %"class.std::basic_ostream"*, i8, i8, %"class.std::basic_streambuf"*, %"class.std::ctype"*, %"class.std::num_put"*, %"class.std::num_get"* }
%"class.std::ios_base" = type { i32 (...)**, i64, i64, i32, i32, i32, %"struct.std::ios_base::_Callback_list"*, %"struct.std::ios_base::_Words", [8 x %"struct.std::ios_base::_Words"], i32, %"struct.std::ios_base::_Words"*, %"class.std::locale" }
%"struct.std::ios_base::_Callback_list" = type { %"struct.std::ios_base::_Callback_list"*, void (i32, %"class.std::ios_base"*, i32)*, i32, i32 }
%"struct.std::ios_base::_Words" = type { i8*, i64 }
%"class.std::locale" = type { %"class.std::locale::_Impl"* }
%"class.std::locale::_Impl" = type { i32, %"class.std::locale::facet"**, i64, %"class.std::locale::facet"**, i8** }
%"class.std::locale::facet" = type <{ i32 (...)**, i32, [4 x i8] }>
%"class.std::basic_ostream" = type { i32 (...)**, %"class.std::basic_ios" }
%"class.std::basic_streambuf" = type { i32 (...)**, i8*, i8*, i8*, i8*, i8*, i8*, %"class.std::locale" }
%"class.std::ctype" = type <{ %"class.std::locale::facet.base", [4 x i8], %struct.__locale_struct*, i8, [7 x i8], i32*, i32*, i16*, i8, [256 x i8], [256 x i8], i8, [6 x i8] }>
%"class.std::locale::facet.base" = type <{ i32 (...)**, i32 }>
%struct.__locale_struct = type { [13 x %struct.__locale_data*], i16*, i32*, i32*, [13 x i8*] }
%struct.__locale_data = type opaque
%"class.std::num_put" = type { %"class.std::locale::facet.base", [4 x i8] }
%"class.std::num_get" = type { %"class.std::locale::facet.base", [4 x i8] }

@_ZStL8__ioinit = internal global %"class.std::ios_base::Init" zeroinitializer, align 1
@__dso_handle = external hidden global i8
@_ZSt3cin = external global %"class.std::basic_istream", align 8
@_ZSt4cout = external global %"class.std::basic_ostream", align 8
@.str = private unnamed_addr constant [2 x i8] c" \00", align 1
@llvm.global_ctors = appending global [1 x { i32, void ()*, i8* }] [{ i32, void ()*, i8* } { i32 65535, void ()* @_GLOBAL__sub_I_122.cpp, i8* null }]

declare void @_ZNSt8ios_base4InitC1Ev(%"class.std::ios_base::Init"* nonnull align 1 dereferenceable(1)) unnamed_addr #0

; Function Attrs: nounwind
declare void @_ZNSt8ios_base4InitD1Ev(%"class.std::ios_base::Init"* nonnull align 1 dereferenceable(1)) unnamed_addr #1

; Function Attrs: nofree nounwind
declare i32 @__cxa_atexit(void (i8*)*, i8*, i8*) local_unnamed_addr #2

; Function Attrs: mustprogress norecurse sspstrong uwtable
define dso_local i32 @main() local_unnamed_addr #3 {
  %1 = alloca [100000 x i32], align 16
  %2 = alloca i32, align 4
  %3 = alloca i32, align 4
  %4 = bitcast [100000 x i32]* %1 to i8*
  call void @llvm.lifetime.start.p0i8(i64 400000, i8* nonnull %4) #6
  %5 = bitcast i32* %2 to i8*
  call void @llvm.lifetime.start.p0i8(i64 4, i8* nonnull %5) #6
  %6 = bitcast i32* %3 to i8*
  call void @llvm.lifetime.start.p0i8(i64 4, i8* nonnull %6) #6
  %7 = call nonnull align 8 dereferenceable(16) %"class.std::basic_istream"* @_ZNSirsERi(%"class.std::basic_istream"* nonnull align 8 dereferenceable(16) @_ZSt3cin, i32* nonnull align 4 dereferenceable(4) %3)
  %8 = load i32, i32* %3, align 4, !tbaa !5
  %9 = icmp slt i32 %8, 1
  br i1 %9, label %19, label %10

10:                                               ; preds = %0, %10
  %11 = phi i64 [ %15, %10 ], [ 1, %0 ]
  %12 = add nsw i64 %11, -1
  %13 = getelementptr inbounds [100000 x i32], [100000 x i32]* %1, i64 0, i64 %12
  %14 = call nonnull align 8 dereferenceable(16) %"class.std::basic_istream"* @_ZNSirsERi(%"class.std::basic_istream"* nonnull align 8 dereferenceable(16) @_ZSt3cin, i32* nonnull align 4 dereferenceable(4) %13)
  %15 = add nuw nsw i64 %11, 1
  %16 = load i32, i32* %3, align 4, !tbaa !5
  %17 = sext i32 %16 to i64
  %18 = icmp slt i64 %11, %17
  br i1 %18, label %10, label %19, !llvm.loop !9

19:                                               ; preds = %10, %0
  %20 = call nonnull align 8 dereferenceable(16) %"class.std::basic_istream"* @_ZNSirsERi(%"class.std::basic_istream"* nonnull align 8 dereferenceable(16) @_ZSt3cin, i32* nonnull align 4 dereferenceable(4) %2)
  %21 = load i32, i32* %2, align 4
  %22 = load i32, i32* %3, align 4, !tbaa !5
  %23 = icmp sgt i32 %22, 0
  br i1 %23, label %24, label %131

24:                                               ; preds = %19, %126
  %25 = phi i32 [ %127, %126 ], [ %22, %19 ]
  %26 = phi i32 [ %128, %126 ], [ %22, %19 ]
  %27 = phi i32 [ %129, %126 ], [ 1, %19 ]
  %28 = icmp sgt i32 %26, 0
  br i1 %28, label %29, label %126

29:                                               ; preds = %24, %120
  %30 = phi i32 [ %122, %120 ], [ %25, %24 ]
  %31 = phi i64 [ %121, %120 ], [ 0, %24 ]
  %32 = phi i32 [ %125, %120 ], [ -1, %24 ]
  %33 = phi i32 [ %122, %120 ], [ %26, %24 ]
  %34 = getelementptr inbounds [100000 x i32], [100000 x i32]* %1, i64 0, i64 %31
  %35 = load i32, i32* %34, align 4, !tbaa !5
  %36 = icmp eq i32 %35, %21
  br i1 %36, label %39, label %37

37:                                               ; preds = %29
  %38 = add nuw nsw i64 %31, 1
  br label %120

39:                                               ; preds = %29
  %40 = trunc i64 %31 to i32
  %41 = sub i32 -2, %40
  %42 = add i32 %41, %33
  %43 = add nuw nsw i64 %31, 1
  %44 = icmp slt i32 %42, 0
  br i1 %44, label %118, label %45

45:                                               ; preds = %39
  %46 = add i32 %33, %32
  %47 = zext i32 %46 to i64
  %48 = icmp ult i32 %46, 8
  br i1 %48, label %107, label %49

49:                                               ; preds = %45
  %50 = and i64 %47, 4294967288
  %51 = add nsw i64 %50, -8
  %52 = lshr exact i64 %51, 3
  %53 = add nuw nsw i64 %52, 1
  %54 = and i64 %53, 1
  %55 = icmp eq i64 %51, 0
  br i1 %55, label %89, label %56

56:                                               ; preds = %49
  %57 = and i64 %53, 4611686018427387902
  br label %58

58:                                               ; preds = %58, %56
  %59 = phi i64 [ 0, %56 ], [ %86, %58 ]
  %60 = phi i64 [ %57, %56 ], [ %87, %58 ]
  %61 = add nuw nsw i64 %43, %59
  %62 = getelementptr inbounds [100000 x i32], [100000 x i32]* %1, i64 0, i64 %61
  %63 = bitcast i32* %62 to <4 x i32>*
  %64 = load <4 x i32>, <4 x i32>* %63, align 4, !tbaa !5
  %65 = getelementptr inbounds i32, i32* %62, i64 4
  %66 = bitcast i32* %65 to <4 x i32>*
  %67 = load <4 x i32>, <4 x i32>* %66, align 4, !tbaa !5
  %68 = add nuw nsw i64 %59, %31
  %69 = getelementptr inbounds [100000 x i32], [100000 x i32]* %1, i64 0, i64 %68
  %70 = bitcast i32* %69 to <4 x i32>*
  store <4 x i32> %64, <4 x i32>* %70, align 4, !tbaa !5
  %71 = getelementptr inbounds i32, i32* %69, i64 4
  %72 = bitcast i32* %71 to <4 x i32>*
  store <4 x i32> %67, <4 x i32>* %72, align 4, !tbaa !5
  %73 = or i64 %59, 8
  %74 = add nuw nsw i64 %43, %73
  %75 = getelementptr inbounds [100000 x i32], [100000 x i32]* %1, i64 0, i64 %74
  %76 = bitcast i32* %75 to <4 x i32>*
  %77 = load <4 x i32>, <4 x i32>* %76, align 4, !tbaa !5
  %78 = getelementptr inbounds i32, i32* %75, i64 4
  %79 = bitcast i32* %78 to <4 x i32>*
  %80 = load <4 x i32>, <4 x i32>* %79, align 4, !tbaa !5
  %81 = add nuw nsw i64 %73, %31
  %82 = getelementptr inbounds [100000 x i32], [100000 x i32]* %1, i64 0, i64 %81
  %83 = bitcast i32* %82 to <4 x i32>*
  store <4 x i32> %77, <4 x i32>* %83, align 4, !tbaa !5
  %84 = getelementptr inbounds i32, i32* %82, i64 4
  %85 = bitcast i32* %84 to <4 x i32>*
  store <4 x i32> %80, <4 x i32>* %85, align 4, !tbaa !5
  %86 = add nuw i64 %59, 16
  %87 = add i64 %60, -2
  %88 = icmp eq i64 %87, 0
  br i1 %88, label %89, label %58, !llvm.loop !11

89:                                               ; preds = %58, %49
  %90 = phi i64 [ 0, %49 ], [ %86, %58 ]
  %91 = icmp eq i64 %54, 0
  br i1 %91, label %105, label %92

92:                                               ; preds = %89
  %93 = add nuw nsw i64 %43, %90
  %94 = getelementptr inbounds [100000 x i32], [100000 x i32]* %1, i64 0, i64 %93
  %95 = bitcast i32* %94 to <4 x i32>*
  %96 = load <4 x i32>, <4 x i32>* %95, align 4, !tbaa !5
  %97 = getelementptr inbounds i32, i32* %94, i64 4
  %98 = bitcast i32* %97 to <4 x i32>*
  %99 = load <4 x i32>, <4 x i32>* %98, align 4, !tbaa !5
  %100 = add nuw nsw i64 %90, %31
  %101 = getelementptr inbounds [100000 x i32], [100000 x i32]* %1, i64 0, i64 %100
  %102 = bitcast i32* %101 to <4 x i32>*
  store <4 x i32> %96, <4 x i32>* %102, align 4, !tbaa !5
  %103 = getelementptr inbounds i32, i32* %101, i64 4
  %104 = bitcast i32* %103 to <4 x i32>*
  store <4 x i32> %99, <4 x i32>* %104, align 4, !tbaa !5
  br label %105

105:                                              ; preds = %89, %92
  %106 = icmp eq i64 %50, %47
  br i1 %106, label %118, label %107

107:                                              ; preds = %45, %105
  %108 = phi i64 [ 0, %45 ], [ %50, %105 ]
  br label %109

109:                                              ; preds = %107, %109
  %110 = phi i64 [ %116, %109 ], [ %108, %107 ]
  %111 = add nuw nsw i64 %43, %110
  %112 = getelementptr inbounds [100000 x i32], [100000 x i32]* %1, i64 0, i64 %111
  %113 = load i32, i32* %112, align 4, !tbaa !5
  %114 = add nuw nsw i64 %110, %31
  %115 = getelementptr inbounds [100000 x i32], [100000 x i32]* %1, i64 0, i64 %114
  store i32 %113, i32* %115, align 4, !tbaa !5
  %116 = add nuw nsw i64 %110, 1
  %117 = icmp eq i64 %116, %47
  br i1 %117, label %118, label %109, !llvm.loop !13

118:                                              ; preds = %109, %105, %39
  %119 = add nsw i32 %33, -1
  store i32 %119, i32* %3, align 4, !tbaa !5
  br label %120

120:                                              ; preds = %37, %118
  %121 = phi i64 [ %38, %37 ], [ %43, %118 ]
  %122 = phi i32 [ %30, %37 ], [ %119, %118 ]
  %123 = sext i32 %122 to i64
  %124 = icmp slt i64 %121, %123
  %125 = add nsw i32 %32, -1
  br i1 %124, label %29, label %126, !llvm.loop !15

126:                                              ; preds = %120, %24
  %127 = phi i32 [ %25, %24 ], [ %122, %120 ]
  %128 = phi i32 [ %26, %24 ], [ %122, %120 ]
  %129 = add nuw nsw i32 %27, 1
  %130 = icmp eq i32 %129, 11
  br i1 %130, label %131, label %24, !llvm.loop !16

131:                                              ; preds = %126, %19
  %132 = getelementptr inbounds [100000 x i32], [100000 x i32]* %1, i64 0, i64 0
  %133 = load i32, i32* %132, align 16, !tbaa !5
  %134 = call nonnull align 8 dereferenceable(8) %"class.std::basic_ostream"* @_ZNSolsEi(%"class.std::basic_ostream"* nonnull align 8 dereferenceable(8) @_ZSt4cout, i32 %133)
  %135 = load i32, i32* %3, align 4, !tbaa !5
  %136 = icmp sgt i32 %135, 1
  br i1 %136, label %137, label %147

137:                                              ; preds = %131, %137
  %138 = phi i64 [ %143, %137 ], [ 1, %131 ]
  %139 = call nonnull align 8 dereferenceable(8) %"class.std::basic_ostream"* @_ZSt16__ostream_insertIcSt11char_traitsIcEERSt13basic_ostreamIT_T0_ES6_PKS3_l(%"class.std::basic_ostream"* nonnull align 8 dereferenceable(8) @_ZSt4cout, i8* nonnull getelementptr inbounds ([2 x i8], [2 x i8]* @.str, i64 0, i64 0), i64 1)
  %140 = getelementptr inbounds [100000 x i32], [100000 x i32]* %1, i64 0, i64 %138
  %141 = load i32, i32* %140, align 4, !tbaa !5
  %142 = call nonnull align 8 dereferenceable(8) %"class.std::basic_ostream"* @_ZNSolsEi(%"class.std::basic_ostream"* nonnull align 8 dereferenceable(8) @_ZSt4cout, i32 %141)
  %143 = add nuw nsw i64 %138, 1
  %144 = load i32, i32* %3, align 4, !tbaa !5
  %145 = sext i32 %144 to i64
  %146 = icmp slt i64 %143, %145
  br i1 %146, label %137, label %147, !llvm.loop !18

147:                                              ; preds = %137, %131
  call void @llvm.lifetime.end.p0i8(i64 4, i8* nonnull %6) #6
  call void @llvm.lifetime.end.p0i8(i64 4, i8* nonnull %5) #6
  call void @llvm.lifetime.end.p0i8(i64 400000, i8* nonnull %4) #6
  ret i32 0
}

; Function Attrs: argmemonly mustprogress nofree nosync nounwind willreturn
declare void @llvm.lifetime.start.p0i8(i64 immarg, i8* nocapture) #4

declare nonnull align 8 dereferenceable(16) %"class.std::basic_istream"* @_ZNSirsERi(%"class.std::basic_istream"* nonnull align 8 dereferenceable(16), i32* nonnull align 4 dereferenceable(4)) local_unnamed_addr #0

declare nonnull align 8 dereferenceable(8) %"class.std::basic_ostream"* @_ZNSolsEi(%"class.std::basic_ostream"* nonnull align 8 dereferenceable(8), i32) local_unnamed_addr #0

; Function Attrs: argmemonly mustprogress nofree nosync nounwind willreturn
declare void @llvm.lifetime.end.p0i8(i64 immarg, i8* nocapture) #4

declare nonnull align 8 dereferenceable(8) %"class.std::basic_ostream"* @_ZSt16__ostream_insertIcSt11char_traitsIcEERSt13basic_ostreamIT_T0_ES6_PKS3_l(%"class.std::basic_ostream"* nonnull align 8 dereferenceable(8), i8*, i64) local_unnamed_addr #0

; Function Attrs: sspstrong uwtable
define internal void @_GLOBAL__sub_I_122.cpp() #5 section ".text.startup" {
  tail call void @_ZNSt8ios_base4InitC1Ev(%"class.std::ios_base::Init"* nonnull align 1 dereferenceable(1) @_ZStL8__ioinit)
  %1 = tail call i32 @__cxa_atexit(void (i8*)* bitcast (void (%"class.std::ios_base::Init"*)* @_ZNSt8ios_base4InitD1Ev to void (i8*)*), i8* getelementptr inbounds (%"class.std::ios_base::Init", %"class.std::ios_base::Init"* @_ZStL8__ioinit, i64 0, i32 0), i8* nonnull @__dso_handle) #6
  ret void
}


!llvm.module.flags = !{!0, !1, !2, !3}
!llvm.ident = !{!4}

!0 = !{i32 1, !"wchar_size", i32 4}
!1 = !{i32 7, !"PIC Level", i32 2}
!2 = !{i32 7, !"PIE Level", i32 2}
!3 = !{i32 7, !"uwtable", i32 1}
!4 = !{!"clang version 13.0.0"}
!5 = !{!6, !6, i64 0}
!6 = !{!"int", !7, i64 0}
!7 = !{!"omnipotent char", !8, i64 0}
!8 = !{!"Simple C++ TBAA"}
!9 = distinct !{!9, !10}
!10 = !{!"llvm.loop.mustprogress"}
!11 = distinct !{!11, !10, !12}
!12 = !{!"llvm.loop.isvectorized", i32 1}
!13 = distinct !{!13, !10, !14, !12}
!14 = !{!"llvm.loop.unroll.runtime.disable"}
!15 = distinct !{!15, !10}
!16 = distinct !{!16, !10, !17}
!17 = !{!"llvm.loop.unswitch.partial.disable"}
!18 = distinct !{!18, !10}
